; ModuleID = 'source-C-CXX/12/1621.cpp'
source_filename = "source-C-CXX/12/1621.cpp"
target datalayout = "e-m:e-p270:32:32-p271:32:32-p272:64:64-i64:64-f80:128-n8:16:32:64-S128"
target triple = "x86_64-pc-linux-gnu"

%"class.std::ios_base::Init" = type { i8 }
%"class.std::basic_istream" = type { i32 (...)**, i64, %"class.std::basic_ios" }
%"class.std::basic_ios" = type { %"class.std::ios_base", %"class.std::basic_ostream"*, i8, i8, %"class.std::basic_streambuf"*, %"class.std::ctype"*, %"class.std::num_put"*, %"class.std::num_get"* }
%"class.std::ios_base" = type { i32 (...)**, i64, i64, i32, i32, i32, %"struct.std::ios_base::_Callback_list"*, %"struct.std::ios_base::_Words", [8 x %"struct.std::ios_base::_Words"], i32, %"struct.std::ios_base::_Words"*, %"class.std::locale" }
%"struct.std::ios_base::_Callback_list" = type { %"struct.std::ios_base::_Callback_list"*, void (i32, %"class.std::ios_base"*, i32)*, i32, i32 }
%"struct.std::ios_base::_Words" = type { i8*, i64 }
%"class.std::locale" = type { %"class.std::locale::_Impl"* }
%"class.std::locale::_Impl" = type { i32, %"class.std::locale::facet"**, i64, %"class.std::locale::facet"**, i8** }
%"class.std::locale::facet" = type <{ i32 (...)**, i32, [4 x i8] }>
%"class.std::basic_ostream" = type { i32 (...)**, %"class.std::basic_ios" }
%"class.std::basic_streambuf" = type { i32 (...)**, i8*, i8*, i8*, i8*, i8*, i8*, %"class.std::locale" }
%"class.std::ctype" = type <{ %"class.std::locale::facet.base", [4 x i8], %struct.__locale_struct*, i8, [7 x i8], i32*, i32*, i16*, i8, [256 x i8], [256 x i8], i8, [6 x i8] }>
%"class.std::locale::facet.base" = type <{ i32 (...)**, i32 }>
%struct.__locale_struct = type { [13 x %struct.__locale_data*], i16*, i32*, i32*, [13 x i8*] }
%struct.__locale_data = type opaque
%"class.std::num_put" = type { %"class.std::locale::facet.base", [4 x i8] }
%"class.std::num_get" = type { %"class.std::locale::facet.base", [4 x i8] }

@_ZStL8__ioinit = internal global %"class.std::ios_base::Init" zeroinitializer, align 1
@__dso_handle = external hidden global i8
@_ZSt3cin = external global %"class.std::basic_istream", align 8
@_ZSt4cout = external global %"class.std::basic_ostream", align 8
@llvm.global_ctors = appending global [1 x { i32, void ()*, i8* }] [{ i32, void ()*, i8* } { i32 65535, void ()* @_GLOBAL__sub_I_1621.cpp, i8* null }]

declare void @_ZNSt8ios_base4InitC1Ev(%"class.std::ios_base::Init"* nonnull align 1 dereferenceable(1)) unnamed_addr #0

; Function Attrs: nounwind
declare void @_ZNSt8ios_base4InitD1Ev(%"class.std::ios_base::Init"* nonnull align 1 dereferenceable(1)) unnamed_addr #1

; Function Attrs: nofree nounwind
declare i32 @__cxa_atexit(void (i8*)*, i8*, i8*) local_unnamed_addr #2

; Function Attrs: mustprogress norecurse sspstrong uwtable
define dso_local i32 @main() local_unnamed_addr #3 {
  %1 = alloca i8, align 1
  %2 = alloca i32, align 4
  %3 = alloca [200001 x i32], align 16
  %4 = bitcast i32* %2 to i8*
  call void @llvm.lifetime.start.p0i8(i64 4, i8* nonnull %4) #6
  %5 = bitcast [200001 x i32]* %3 to i8*
  call void @llvm.lifetime.start.p0i8(i64 800004, i8* nonnull %5) #6
  %6 = call nonnull align 8 dereferenceable(16) %"class.std::basic_istream"* @_ZNSirsERi(%"class.std::basic_istream"* nonnull align 8 dereferenceable(16) @_ZSt3cin, i32* nonnull align 4 dereferenceable(4) %2)
  %7 = load i32, i32* %2, align 4, !tbaa !5
  %8 = icmp slt i32 %7, 1
  br i1 %8, label %20, label %9

9:                                                ; preds = %0, %9
  %10 = phi i64 [ %13, %9 ], [ 1, %0 ]
  %11 = getelementptr inbounds [200001 x i32], [200001 x i32]* %3, i64 0, i64 %10
  %12 = call nonnull align 8 dereferenceable(16) %"class.std::basic_istream"* @_ZNSirsERi(%"class.std::basic_istream"* nonnull align 8 dereferenceable(16) @_ZSt3cin, i32* nonnull align 4 dereferenceable(4) %11)
  %13 = add nuw nsw i64 %10, 1
  %14 = load i32, i32* %2, align 4, !tbaa !5
  %15 = sext i32 %14 to i64
  %16 = icmp slt i64 %10, %15
  br i1 %16, label %9, label %17, !llvm.loop !9

17:                                               ; preds = %9
  %18 = getelementptr inbounds [200001 x i32], [200001 x i32]* %3, i64 0, i64 1
  %19 = load i32, i32* %18, align 4, !tbaa !5
  br label %20

20:                                               ; preds = %17, %0
  %21 = phi i32 [ %19, %17 ], [ undef, %0 ]
  %22 = call nonnull align 8 dereferenceable(8) %"class.std::basic_ostream"* @_ZNSolsEi(%"class.std::basic_ostream"* nonnull align 8 dereferenceable(8) @_ZSt4cout, i32 %21)
  %23 = load i32, i32* %2, align 4, !tbaa !5
  %24 = icmp slt i32 %23, 2
  br i1 %24, label %92, label %25

25:                                               ; preds = %20, %86
  %26 = phi i64 [ %91, %86 ], [ 0, %20 ]
  %27 = phi i32 [ %87, %86 ], [ %23, %20 ]
  %28 = phi i64 [ %88, %86 ], [ 2, %20 ]
  %29 = add i64 %26, 1
  %30 = getelementptr inbounds [200001 x i32], [200001 x i32]* %3, i64 0, i64 %28
  %31 = load i32, i32* %30, align 4, !tbaa !5
  %32 = and i64 %29, 3
  %33 = icmp ult i64 %26, 3
  br i1 %33, label %62, label %34

34:                                               ; preds = %25
  %35 = and i64 %29, -4
  br label %36

36:                                               ; preds = %36, %34
  %37 = phi i64 [ 1, %34 ], [ %59, %36 ]
  %38 = phi i32 [ 0, %34 ], [ %58, %36 ]
  %39 = phi i64 [ %35, %34 ], [ %60, %36 ]
  %40 = getelementptr inbounds [200001 x i32], [200001 x i32]* %3, i64 0, i64 %37
  %41 = load i32, i32* %40, align 4, !tbaa !5
  %42 = icmp eq i32 %41, %31
  %43 = add nuw nsw i64 %37, 1
  %44 = getelementptr inbounds [200001 x i32], [200001 x i32]* %3, i64 0, i64 %43
  %45 = load i32, i32* %44, align 4, !tbaa !5
  %46 = icmp eq i32 %45, %31
  %47 = add nuw nsw i64 %37, 2
  %48 = getelementptr inbounds [200001 x i32], [200001 x i32]* %3, i64 0, i64 %47
  %49 = load i32, i32* %48, align 4, !tbaa !5
  %50 = icmp eq i32 %49, %31
  %51 = add nuw nsw i64 %37, 3
  %52 = getelementptr inbounds [200001 x i32], [200001 x i32]* %3, i64 0, i64 %51
  %53 = load i32, i32* %52, align 4, !tbaa !5
  %54 = icmp eq i32 %53, %31
  %55 = select i1 %54, i1 true, i1 %50
  %56 = select i1 %55, i1 true, i1 %46
  %57 = select i1 %56, i1 true, i1 %42
  %58 = select i1 %57, i32 1, i32 %38
  %59 = add nuw nsw i64 %37, 4
  %60 = add i64 %39, -4
  %61 = icmp eq i64 %60, 0
  br i1 %61, label %62, label %36, !llvm.loop !11

62:                                               ; preds = %36, %25
  %63 = phi i32 [ undef, %25 ], [ %58, %36 ]
  %64 = phi i64 [ 1, %25 ], [ %59, %36 ]
  %65 = phi i32 [ 0, %25 ], [ %58, %36 ]
  %66 = icmp eq i64 %32, 0
  br i1 %66, label %78, label %67

67:                                               ; preds = %62, %67
  %68 = phi i64 [ %75, %67 ], [ %64, %62 ]
  %69 = phi i32 [ %74, %67 ], [ %65, %62 ]
  %70 = phi i64 [ %76, %67 ], [ %32, %62 ]
  %71 = getelementptr inbounds [200001 x i32], [200001 x i32]* %3, i64 0, i64 %68
  %72 = load i32, i32* %71, align 4, !tbaa !5
  %73 = icmp eq i32 %72, %31
  %74 = select i1 %73, i32 1, i32 %69
  %75 = add nuw nsw i64 %68, 1
  %76 = add i64 %70, -1
  %77 = icmp eq i64 %76, 0
  br i1 %77, label %78, label %67, !llvm.loop !12

78:                                               ; preds = %67, %62
  %79 = phi i32 [ %63, %62 ], [ %74, %67 ]
  %80 = icmp eq i32 %79, 0
  br i1 %80, label %81, label %86

81:                                               ; preds = %78
  call void @llvm.lifetime.start.p0i8(i64 1, i8* nonnull %1)
  store i8 32, i8* %1, align 1, !tbaa !14
  %82 = call nonnull align 8 dereferenceable(8) %"class.std::basic_ostream"* @_ZSt16__ostream_insertIcSt11char_traitsIcEERSt13basic_ostreamIT_T0_ES6_PKS3_l(%"class.std::basic_ostream"* nonnull align 8 dereferenceable(8) @_ZSt4cout, i8* nonnull %1, i64 1)
  call void @llvm.lifetime.end.p0i8(i64 1, i8* nonnull %1)
  %83 = load i32, i32* %30, align 4, !tbaa !5
  %84 = call nonnull align 8 dereferenceable(8) %"class.std::basic_ostream"* @_ZNSolsEi(%"class.std::basic_ostream"* nonnull align 8 dereferenceable(8) %82, i32 %83)
  %85 = load i32, i32* %2, align 4, !tbaa !5
  br label %86

86:                                               ; preds = %81, %78
  %87 = phi i32 [ %85, %81 ], [ %27, %78 ]
  %88 = add nuw nsw i64 %28, 1
  %89 = sext i32 %87 to i64
  %90 = icmp slt i64 %28, %89
  %91 = add i64 %26, 1
  br i1 %90, label %25, label %92, !llvm.loop !15

92:                                               ; preds = %86, %20
  call void @llvm.lifetime.end.p0i8(i64 800004, i8* nonnull %5) #6
  call void @llvm.lifetime.end.p0i8(i64 4, i8* nonnull %4) #6
  ret i32 0
}

; Function Attrs: argmemonly mustprogress nofree nosync nounwind willreturn
declare void @llvm.lifetime.start.p0i8(i64 immarg, i8* nocapture) #4

declare nonnull align 8 dereferenceable(16) %"class.std::basic_istream"* @_ZNSirsERi(%"class.std::basic_istream"* nonnull align 8 dereferenceable(16), i32* nonnull align 4 dereferenceable(4)) local_unnamed_addr #0

declare nonnull align 8 dereferenceable(8) %"class.std::basic_ostream"* @_ZNSolsEi(%"class.std::basic_ostream"* nonnull align 8 dereferenceable(8), i32) local_unnamed_addr #0

; Function Attrs: argmemonly mustprogress nofree nosync nounwind willreturn
declare void @llvm.lifetime.end.p0i8(i64 immarg, i8* nocapture) #4

declare nonnull align 8 dereferenceable(8) %"class.std::basic_ostream"* @_ZSt16__ostream_insertIcSt11char_traitsIcEERSt13basic_ostreamIT_T0_ES6_PKS3_l(%"class.std::basic_ostream"* nonnull align 8 dereferenceable(8), i8*, i64) local_unnamed_addr #0

; Function Attrs: sspstrong uwtable
define internal void @_GLOBAL__sub_I_1621.cpp() #5 section ".text.startup" {
  tail call void @_ZNSt8ios_base4InitC1Ev(%"class.std::ios_base::Init"* nonnull align 1 dereferenceable(1) @_ZStL8__ioinit)
  %1 = tail call i32 @__cxa_atexit(void (i8*)* bitcast (void (%"class.std::ios_base::Init"*)* @_ZNSt8ios_base4InitD1Ev to void (i8*)*), i8* getelementptr inbounds (%"class.std::ios_base::Init", %"class.std::ios_base::Init"* @_ZStL8__ioinit, i64 0, i32 0), i8* nonnull @__dso_handle) #6
  ret void
}


!llvm.module.flags = !{!0, !1, !2, !3}
!llvm.ident = !{!4}

!0 = !{i32 1, !"wchar_size", i32 4}
!1 = !{i32 7, !"PIC Level", i32 2}
!2 = !{i32 7, !"PIE Level", i32 2}
!3 = !{i32 7, !"uwtable", i32 1}
!4 = !{!"clang version 13.0.0"}
!5 = !{!6, !6, i64 0}
!6 = !{!"int", !7, i64 0}
!7 = !{!"omnipotent char", !8, i64 0}
!8 = !{!"Simple C++ TBAA"}
!9 = distinct !{!9, !10}
!10 = !{!"llvm.loop.mustprogress"}
!11 = distinct !{!11, !10}
!12 = distinct !{!12, !13}
!13 = !{!"llvm.loop.unroll.disable"}
!14 = !{!7, !7, i64 0}
!15 = distinct !{!15, !10}
